; Function Attrs: nofree norecurse nosync nounwind memory(argmem: readwrite) uwtable
define internal void @PredictorAdd5_C(ptr noundef readonly captures(none) %0, ptr noundef readonly captures(none) %1, i32 noundef %2, ptr noalias noundef captures(none) %3) #2 {
  %5 = icmp sgt i32 %2, 0
  br i1 %5, label %.lr.ph.preheader, label %._crit_edge

.lr.ph.preheader:                                 ; preds = %4
  %wide.trip.count = zext nneg i32 %2 to i64
  %scevgep = getelementptr i8, ptr %3, i64 -4
  %load_initial = load i32, ptr %scevgep, align 4
  br label %.lr.ph

.lr.ph:                                           ; preds = %.lr.ph.preheader, %.lr.ph
  %store_forwarded = phi i32 [ %load_initial, %.lr.ph.preheader ], [ %31, %.lr.ph ]
  %indvars.iv = phi i64 [ 0, %.lr.ph.preheader ], [ %indvars.iv.next, %.lr.ph ]
  %6 = getelementptr i32, ptr %3, i64 %indvars.iv
  %7 = getelementptr inbounds nuw i32, ptr %1, i64 %indvars.iv
  %8 = load i32, ptr %7, align 4, !tbaa !3
  %9 = getelementptr inbounds nuw i8, ptr %7, i64 4
  %10 = load i32, ptr %9, align 4, !tbaa !3
  %11 = xor i32 %10, %store_forwarded
  %12 = lshr i32 %11, 1
  %13 = and i32 %12, 2139062143
  %14 = and i32 %10, %store_forwarded
  %15 = add i32 %13, %14
  %16 = xor i32 %15, %8
  %17 = lshr i32 %16, 1
  %18 = and i32 %17, 2139062143
  %19 = and i32 %15, %8
  %20 = add i32 %18, %19
  %21 = getelementptr inbounds nuw i32, ptr %0, i64 %indvars.iv
  %22 = load i32, ptr %21, align 4, !tbaa !3
  %23 = and i32 %22, -16711936
  %24 = and i32 %20, -16711936
  %25 = add i32 %24, %23
  %26 = and i32 %22, 16711935
  %27 = and i32 %20, 16711935
  %28 = add nuw nsw i32 %27, %26
  %29 = and i32 %25, -16711936
  %30 = and i32 %28, 16711935
  %31 = or disjoint i32 %29, %30
  store i32 %31, ptr %6, align 4, !tbaa !3
  %indvars.iv.next = add nuw nsw i64 %indvars.iv, 1
  %exitcond.not = icmp eq i64 %indvars.iv.next, %wide.trip.count
  br i1 %exitcond.not, label %._crit_edge, label %.lr.ph, !llvm.loop !70

._crit_edge:                                      ; preds = %.lr.ph, %4
  ret void
}